; Function Attrs: nounwind uwtable
define hidden void @dom_remove_all_children(ptr nocapture noundef %0) local_unnamed_addr #1 {
  %2 = getelementptr inbounds i8, ptr %0, i64 24
  %3 = load ptr, ptr %2, align 8
  %.not = icmp eq ptr %3, null
  br i1 %.not, label %6, label %4

4:                                                ; preds = %1
  tail call void @node_list_unlink(ptr noundef nonnull %3)
  %5 = load ptr, ptr %2, align 8
  tail call void @php_libxml_node_free_list(ptr noundef %5) #16
  tail call void @llvm.memset.p0.i64(ptr noundef nonnull align 8 dereferenceable(16) %2, i8 0, i64 16, i1 false)
  br label %6

6:                                                ; preds = %4, %1
  ret void
}